(lp0
(dp1
S'indigo'
p2
I0
sS'gold'
p3
I0
sS'yellow'
p4
I0
sS'magenta'
p5
I0
sS'rosybrown'
p6
I0
sS'blue'
p7
I0
sS'lightblue'
p8
I0
sS'lightpink'
p9
I0
sS'darkorange'
p10
I0
sS'lightpurple'
p11
I0
sS'seagreen'
p12
I0
sS'black'
p13
I3
sS'orange'
p14
I0
sS'white'
p15
I0
sS'midnightblue'
p16
I0
sS'red'
p17
I0
sS'khaki'
p18
I0
sS'deeppink'
p19
I0
sS'salmon'
p20
I0
sS'lawngreen'
p21
I0
sS'lightgreen'
p22
I0
sS'steelblue'
p23
I0
sS'maroon'
p24
I0
sS'cyan'
p25
I0
sS'lightgray'
p26
I1
sS'gray'
p27
I0
sS'darkgreen'
p28
I0
sS'darkgray'
p29
I1
sS'saddlebrown'
p30
I0
sS'purple'
p31
I0
sS'green'
p32
I0
sS'teal'
p33
I0
sa(dp34
g2
I0
sg3
I0
sg4
I0
sg5
I0
sg6
I1
sg7
I0
sg8
I0
sg9
I0
sg10
I0
sg11
I0
sg12
I0
sg13
I1
sg14
I0
sg15
I1
sg16
I0
sg17
I0
sg18
I0
sg19
I0
sg20
I0
sg21
I0
sg22
I0
sg23
I0
sg24
I0
sg25
I0
sg26
I0
sg27
I1
sg28
I0
sg29
I1
sg30
I0
sg31
I0
sg32
I0
sg33
I0
sa(dp35
g2
I0
sg3
I0
sg4
I0
sg5
I0
sg6
I0
sg7
I0
sg8
I0
sg9
I0
sg10
I0
sg11
I0
sg12
I0
sg13
I1
sg14
I0
sg15
I1
sg16
I0
sg17
I0
sg18
I0
sg19
I0
sg20
I0
sg21
I0
sg22
I0
sg23
I0
sg24
I0
sg25
I0
sg26
I1
sg27
I1
sg28
I0
sg29
I0
sg30
I1
sg31
I0
sg32
I0
sg33
I0
sa(dp36
g2
I0
sg3
I0
sg4
I0
sg5
I0
sg6
I0
sg7
I0
sg8
I0
sg9
I0
sg10
I0
sg11
I0
sg12
I0
sg13
I1
sg14
I0
sg15
I1
sg16
I0
sg17
I0
sg18
I1
sg19
I0
sg20
I0
sg21
I0
sg22
I0
sg23
I0
sg24
I0
sg25
I0
sg26
I0
sg27
I0
sg28
I0
sg29
I1
sg30
I0
sg31
I0
sg32
I0
sg33
I1
sa(dp37
g2
I0
sg3
I0
sg4
I0
sg5
I0
sg6
I0
sg7
I0
sg8
I0
sg9
I0
sg10
I0
sg11
I0
sg12
I0
sg13
I0
sg14
I0
sg15
I1
sg16
I0
sg17
I0
sg18
I0
sg19
I0
sg20
I0
sg21
I0
sg22
I0
sg23
I1
sg24
I0
sg25
I0
sg26
I1
sg27
I1
sg28
I0
sg29
I1
sg30
I0
sg31
I0
sg32
I0
sg33
I0
sa(dp38
g2
I0
sg3
I0
sg4
I0
sg5
I0
sg6
I0
sg7
I0
sg8
I0
sg9
I0
sg10
I0
sg11
I0
sg12
I0
sg13
I0
sg14
I0
sg15
I3
sg16
I0
sg17
I0
sg18
I0
sg19
I0
sg20
I0
sg21
I0
sg22
I0
sg23
I0
sg24
I0
sg25
I0
sg26
I2
sg27
I0
sg28
I0
sg29
I0
sg30
I0
sg31
I0
sg32
I0
sg33
I0
sa(dp39
g2
I0
sg3
I0
sg4
I0
sg5
I0
sg6
I0
sg7
I0
sg8
I0
sg9
I0
sg10
I0
sg11
I0
sg12
I0
sg13
I0
sg14
I0
sg15
I1
sg16
I0
sg17
I0
sg18
I0
sg19
I0
sg20
I0
sg21
I0
sg22
I0
sg23
I0
sg24
I0
sg25
I0
sg26
I2
sg27
I1
sg28
I0
sg29
I1
sg30
I0
sg31
I0
sg32
I0
sg33
I0
sa.